target datalayout = "e-m:e-p270:32:32-p271:32:32-p272:64:64-i64:64-i128:128-f80:128-n8:16:32:64-S128"
target triple = "x86_64-pc-linux-gnu"

%struct.nghttp2_frame_hd = type { i64, i32, i8, i8, i8 }
%struct.nghttp2_extension = type { %struct.nghttp2_frame_hd, ptr }
%struct.nghttp2_ext_altsvc = type { ptr, i64, ptr, i64 }

; Function Attrs: nounwind uwtable
define hidden void @nghttp2_frame_unpack_altsvc_payload(ptr noundef %0, i64 noundef %1, ptr noundef %2, i64 noundef %3) #0 {
  %5 = alloca ptr, align 8
  %6 = alloca i64, align 8
  %7 = alloca ptr, align 8
  %8 = alloca i64, align 8
  %9 = alloca ptr, align 8
  %10 = alloca ptr, align 8
  store ptr %0, ptr %5, align 8, !tbaa !8
  store i64 %1, ptr %6, align 8, !tbaa !18
  store ptr %2, ptr %7, align 8, !tbaa !3
  store i64 %3, ptr %8, align 8, !tbaa !18
  call void @llvm.lifetime.start.p0(i64 8, ptr %9) #7
  call void @llvm.lifetime.start.p0(i64 8, ptr %10) #7
  %11 = load ptr, ptr %5, align 8, !tbaa !8
  %12 = getelementptr inbounds nuw %struct.nghttp2_extension, ptr %11, i32 0, i32 1
  %13 = load ptr, ptr %12, align 8, !tbaa !49
  store ptr %13, ptr %9, align 8, !tbaa !8
  %14 = load ptr, ptr %7, align 8, !tbaa !3
  store ptr %14, ptr %10, align 8, !tbaa !3
  %15 = load ptr, ptr %10, align 8, !tbaa !3
  %16 = load ptr, ptr %9, align 8, !tbaa !8
  %17 = getelementptr inbounds nuw %struct.nghttp2_ext_altsvc, ptr %16, i32 0, i32 0
  store ptr %15, ptr %17, align 8, !tbaa !51
  %18 = load i64, ptr %6, align 8, !tbaa !18
  %19 = load ptr, ptr %10, align 8, !tbaa !3
  %20 = getelementptr inbounds nuw i8, ptr %19, i64 %18
  store ptr %20, ptr %10, align 8, !tbaa !3
  %21 = load i64, ptr %6, align 8, !tbaa !18
  %22 = load ptr, ptr %9, align 8, !tbaa !8
  %23 = getelementptr inbounds nuw %struct.nghttp2_ext_altsvc, ptr %22, i32 0, i32 1
  store i64 %21, ptr %23, align 8, !tbaa !53
  %24 = load ptr, ptr %10, align 8, !tbaa !3
  %25 = load ptr, ptr %9, align 8, !tbaa !8
  %26 = getelementptr inbounds nuw %struct.nghttp2_ext_altsvc, ptr %25, i32 0, i32 2
  store ptr %24, ptr %26, align 8, !tbaa !54
  %27 = load ptr, ptr %7, align 8, !tbaa !3
  %28 = load i64, ptr %8, align 8, !tbaa !18
  %29 = getelementptr inbounds nuw i8, ptr %27, i64 %28
  %30 = load ptr, ptr %10, align 8, !tbaa !3
  %31 = ptrtoint ptr %29 to i64
  %32 = ptrtoint ptr %30 to i64
  %33 = sub i64 %31, %32
  %34 = load ptr, ptr %9, align 8, !tbaa !8
  %35 = getelementptr inbounds nuw %struct.nghttp2_ext_altsvc, ptr %34, i32 0, i32 3
  store i64 %33, ptr %35, align 8, !tbaa !55
  call void @llvm.lifetime.end.p0(i64 8, ptr %10) #7
  call void @llvm.lifetime.end.p0(i64 8, ptr %9) #7
  ret void
}

; Function Attrs: nounwind uwtable
define hidden i32 @nghttp2_frame_unpack_altsvc_payload2(ptr noundef %0, ptr noundef %1, i64 noundef %2, ptr noundef %3) #0 {
  %5 = alloca i32, align 4
  %6 = alloca ptr, align 8
  %7 = alloca ptr, align 8
  %8 = alloca i64, align 8
  %9 = alloca ptr, align 8
  %10 = alloca ptr, align 8
  %11 = alloca i64, align 8
  %12 = alloca i32, align 4
  store ptr %0, ptr %6, align 8, !tbaa !8
  store ptr %1, ptr %7, align 8, !tbaa !3
  store i64 %2, ptr %8, align 8, !tbaa !18
  store ptr %3, ptr %9, align 8, !tbaa !8
  call void @llvm.lifetime.start.p0(i64 8, ptr %10) #7
  call void @llvm.lifetime.start.p0(i64 8, ptr %11) #7
  %13 = load i64, ptr %8, align 8, !tbaa !18
  %14 = icmp ult i64 %13, 2
  br i1 %14, label %15, label %16

15:                                               ; preds = %4
  store i32 6, ptr %5, align 4
  store i32 1, ptr %12, align 4
  br label %39

16:                                               ; preds = %4
  %17 = load ptr, ptr %7, align 8, !tbaa !3
  %18 = call zeroext i16 @nghttp2_get_uint16(ptr noundef %17)
  %19 = zext i16 %18 to i64
  store i64 %19, ptr %11, align 8, !tbaa !18
  %20 = load ptr, ptr %9, align 8, !tbaa !8
  %21 = load i64, ptr %8, align 8, !tbaa !18
  %22 = sub i64 %21, 2
  %23 = call ptr @nghttp2_mem_malloc(ptr noundef %20, i64 noundef %22)
  store ptr %23, ptr %10, align 8, !tbaa !3
  %24 = load ptr, ptr %10, align 8, !tbaa !3
  %25 = icmp ne ptr %24, null
  br i1 %25, label %27, label %26

26:                                               ; preds = %16
  store i32 -901, ptr %5, align 4
  store i32 1, ptr %12, align 4
  br label %39

27:                                               ; preds = %16
  %28 = load ptr, ptr %10, align 8, !tbaa !3
  %29 = load ptr, ptr %7, align 8, !tbaa !3
  %30 = getelementptr inbounds i8, ptr %29, i64 2
  %31 = load i64, ptr %8, align 8, !tbaa !18
  %32 = sub i64 %31, 2
  %33 = call ptr @nghttp2_cpymem(ptr noundef %28, ptr noundef %30, i64 noundef %32)
  %34 = load ptr, ptr %6, align 8, !tbaa !8
  %35 = load i64, ptr %11, align 8, !tbaa !18
  %36 = load ptr, ptr %10, align 8, !tbaa !3
  %37 = load i64, ptr %8, align 8, !tbaa !18
  %38 = sub i64 %37, 2
  call void @nghttp2_frame_unpack_altsvc_payload(ptr noundef %34, i64 noundef %35, ptr noundef %36, i64 noundef %38)
  store i32 0, ptr %5, align 4
  store i32 1, ptr %12, align 4
  br label %39

39:                                               ; preds = %27, %26, %15
  call void @llvm.lifetime.end.p0(i64 8, ptr %11) #7
  call void @llvm.lifetime.end.p0(i64 8, ptr %10) #7
  %40 = load i32, ptr %5, align 4
  ret i32 %40
}