; Function Attrs: nounwind uwtable
define hidden range(i32 -901, 7) i32 @nghttp2_frame_unpack_altsvc_payload2(ptr noundef readonly captures(none) %0, ptr noundef %1, i64 noundef %2, ptr noundef %3) local_unnamed_addr #0 {
  %5 = icmp ult i64 %2, 2
  br i1 %5, label %20, label %6

6:                                                ; preds = %4
  %7 = tail call zeroext i16 @nghttp2_get_uint16(ptr noundef %1) #18
  %8 = add i64 %2, -2
  %9 = tail call ptr @nghttp2_mem_malloc(ptr noundef %3, i64 noundef %8) #18
  %.not = icmp eq ptr %9, null
  br i1 %.not, label %20, label %10

10:                                               ; preds = %6
  %11 = zext i16 %7 to i64
  %12 = getelementptr inbounds nuw i8, ptr %1, i64 2
  %13 = tail call ptr @nghttp2_cpymem(ptr noundef nonnull %9, ptr noundef nonnull %12, i64 noundef %8) #18
  %14 = getelementptr inbounds nuw i8, ptr %0, i64 16
  %15 = load ptr, ptr %14, align 8, !tbaa !46
  store ptr %9, ptr %15, align 8, !tbaa !48
  %16 = getelementptr inbounds nuw i8, ptr %9, i64 %11
  %17 = getelementptr inbounds nuw i8, ptr %15, i64 8
  store i64 %11, ptr %17, align 8, !tbaa !50
  %18 = getelementptr inbounds nuw i8, ptr %15, i64 16
  store ptr %16, ptr %18, align 8, !tbaa !51
  %gepdiff.i = sub nsw i64 %8, %11
  %19 = getelementptr inbounds nuw i8, ptr %15, i64 24
  store i64 %gepdiff.i, ptr %19, align 8, !tbaa !52
  br label %20

20:                                               ; preds = %6, %4, %10
  %.0 = phi i32 [ 0, %10 ], [ 6, %4 ], [ -901, %6 ]
  ret i32 %.0
}